	.file	"name1.cpp"
	.text
	.globl	_Z6squarei
	.type	_Z6squarei, @function
_Z6squarei:
.LFB0:
	.cfi_startproc
	pushq	%rbp
	.cfi_def_cfa_offset 16
	.cfi_offset 6, -16
	movq	%rsp, %rbp
	.cfi_def_cfa_register 6
	movl	%edi, -4(%rbp)
	movl	-4(%rbp), %eax
	imull	-4(%rbp), %eax
	popq	%rbp
	.cfi_def_cfa 7, 8
	ret
	.cfi_endproc
.LFE0:
	.size	_Z6squarei, .-_Z6squarei
	.globl	_Z6squared
	.type	_Z6squared, @function
_Z6squared:
.LFB1:
	.cfi_startproc
	pushq	%rbp
	.cfi_def_cfa_offset 16
	.cfi_offset 6, -16
	movq	%rsp, %rbp
	.cfi_def_cfa_register 6
	movsd	%xmm0, -8(%rbp)
	movsd	-8(%rbp), %xmm0
	mulsd	-8(%rbp), %xmm0
	popq	%rbp
	.cfi_def_cfa 7, 8
	ret
	.cfi_endproc
.LFE1:
	.size	_Z6squared, .-_Z6squared
	.globl	main
	.type	main, @function
main:
.LFB2:
	.cfi_startproc
	pushq	%rbp
	.cfi_def_cfa_offset 16
	.cfi_offset 6, -16
	movq	%rsp, %rbp
	.cfi_def_cfa_register 6
	subq	$8, %rsp
	movl	$3, %edi
	call	_Z6squarei
	movq	.LC0(%rip), %rax
	movq	%rax, -8(%rbp)
	movsd	-8(%rbp), %xmm0
	call	_Z6squared
	movl	$0, %eax
	leave
	.cfi_def_cfa 7, 8
	ret
	.cfi_endproc
.LFE2:
	.size	main, .-main
	.section	.rodata
	.align 8
.LC0:
	.long	1717986918
	.long	1074423398
	.ident	"GCC: (Ubuntu 7.3.0-16ubuntu3) 7.3.0"
	.section	.note.GNU-stack,"",@progbits
